; Function Attrs: mustprogress nofree norecurse nosync nounwind willreturn memory(read, argmem: write, inaccessiblemem: none) uwtable
define void @duckdb_je_tsd_san_init(ptr noundef writeonly captures(none) initializes((120, 136)) %0) local_unnamed_addr #2 {
  %2 = load i64, ptr @duckdb_je_opt_san_guard_small, align 8, !tbaa !13
  %3 = getelementptr inbounds nuw i8, ptr %0, i64 120
  store i64 %2, ptr %3, align 8, !tbaa !13
  %4 = load i64, ptr @duckdb_je_opt_san_guard_large, align 8, !tbaa !13
  %5 = getelementptr inbounds nuw i8, ptr %0, i64 128
  store i64 %4, ptr %5, align 8, !tbaa !13
  ret void
}